target datalayout = "e-m:e-p270:32:32-p271:32:32-p272:64:64-i64:64-i128:128-f80:128-n8:16:32:64-S128"
target triple = "x86_64-pc-linux-gnu"

%struct.opcode_metadata = type { i8, i8, i16 }
%struct._Py_SourceLocation = type { i32, i32, i32, i32 }
%struct._PyJumpTargetLabel = type { i32 }
%struct._PyCfgBuilder = type { ptr, ptr, ptr, %struct._PyJumpTargetLabel }
%struct._PyCfgBasicblock = type { ptr, %struct._PyJumpTargetLabel, ptr, ptr, ptr, i32, i32, i64, i32, i32, i8 }
%struct._PyCfgInstruction = type { i32, i32, %struct._Py_SourceLocation, ptr, ptr }

@_PyOpcode_opcode_metadata = external constant [266 x %struct.opcode_metadata], align 16

; Function Attrs: nounwind uwtable
define internal ptr @basicblock_last_instr(ptr noundef %0) #0 {
  %2 = alloca ptr, align 8
  %3 = alloca ptr, align 8
  store ptr %0, ptr %3, align 8, !tbaa !14
  %4 = load ptr, ptr %3, align 8, !tbaa !14
  %5 = getelementptr inbounds nuw %struct._PyCfgBasicblock, ptr %4, i32 0, i32 5
  %6 = load i32, ptr %5, align 8, !tbaa !44
  %7 = icmp sgt i32 %6, 0
  br i1 %7, label %8, label %18

8:                                                ; preds = %1
  %9 = load ptr, ptr %3, align 8, !tbaa !14
  %10 = getelementptr inbounds nuw %struct._PyCfgBasicblock, ptr %9, i32 0, i32 3
  %11 = load ptr, ptr %10, align 8, !tbaa !20
  %12 = load ptr, ptr %3, align 8, !tbaa !14
  %13 = getelementptr inbounds nuw %struct._PyCfgBasicblock, ptr %12, i32 0, i32 5
  %14 = load i32, ptr %13, align 8, !tbaa !44
  %15 = sub i32 %14, 1
  %16 = sext i32 %15 to i64
  %17 = getelementptr %struct._PyCfgInstruction, ptr %11, i64 %16
  store ptr %17, ptr %2, align 8
  br label %19

18:                                               ; preds = %1
  store ptr null, ptr %2, align 8
  br label %19

19:                                               ; preds = %18, %8
  %20 = load ptr, ptr %2, align 8
  ret ptr %20
}

; Function Attrs: nounwind uwtable
define internal ptr @cfg_builder_use_next_block(ptr noundef %0, ptr noundef %1) #0 {
  %3 = alloca ptr, align 8
  %4 = alloca ptr, align 8
  store ptr %0, ptr %3, align 8, !tbaa !4
  store ptr %1, ptr %4, align 8, !tbaa !14
  %5 = load ptr, ptr %4, align 8, !tbaa !14
  %6 = load ptr, ptr %3, align 8, !tbaa !4
  %7 = getelementptr inbounds nuw %struct._PyCfgBuilder, ptr %6, i32 0, i32 2
  %8 = load ptr, ptr %7, align 8, !tbaa !16
  %9 = getelementptr inbounds nuw %struct._PyCfgBasicblock, ptr %8, i32 0, i32 4
  store ptr %5, ptr %9, align 8, !tbaa !42
  %10 = load ptr, ptr %4, align 8, !tbaa !14
  %11 = load ptr, ptr %3, align 8, !tbaa !4
  %12 = getelementptr inbounds nuw %struct._PyCfgBuilder, ptr %11, i32 0, i32 2
  store ptr %10, ptr %12, align 8, !tbaa !16
  %13 = load ptr, ptr %4, align 8, !tbaa !14
  ret ptr %13
}

; Function Attrs: nounwind uwtable
define internal ptr @cfg_builder_new_block(ptr noundef %0) #0 {
  %2 = alloca ptr, align 8
  %3 = alloca ptr, align 8
  %4 = alloca ptr, align 8
  %5 = alloca i32, align 4
  %6 = alloca %struct._PyJumpTargetLabel, align 4
  store ptr %0, ptr %3, align 8, !tbaa !4
  call void @llvm.lifetime.start.p0(i64 8, ptr %4) #7
  %7 = call ptr @PyMem_Calloc(i64 noundef 1, i64 noundef 72)
  store ptr %7, ptr %4, align 8, !tbaa !14
  %8 = load ptr, ptr %4, align 8, !tbaa !14
  %9 = icmp eq ptr %8, null
  br i1 %9, label %10, label %12

10:                                               ; preds = %1
  %11 = call ptr @PyErr_NoMemory()
  store ptr null, ptr %2, align 8
  store i32 1, ptr %5, align 4
  br label %25

12:                                               ; preds = %1
  %13 = load ptr, ptr %3, align 8, !tbaa !4
  %14 = getelementptr inbounds nuw %struct._PyCfgBuilder, ptr %13, i32 0, i32 1
  %15 = load ptr, ptr %14, align 8, !tbaa !9
  %16 = load ptr, ptr %4, align 8, !tbaa !14
  %17 = getelementptr inbounds nuw %struct._PyCfgBasicblock, ptr %16, i32 0, i32 0
  store ptr %15, ptr %17, align 8, !tbaa !25
  %18 = load ptr, ptr %4, align 8, !tbaa !14
  %19 = load ptr, ptr %3, align 8, !tbaa !4
  %20 = getelementptr inbounds nuw %struct._PyCfgBuilder, ptr %19, i32 0, i32 1
  store ptr %18, ptr %20, align 8, !tbaa !9
  %21 = load ptr, ptr %4, align 8, !tbaa !14
  %22 = getelementptr inbounds nuw %struct._PyCfgBasicblock, ptr %21, i32 0, i32 1
  %23 = getelementptr inbounds nuw %struct._PyJumpTargetLabel, ptr %6, i32 0, i32 0
  store i32 -1, ptr %23, align 4, !tbaa !17
  call void @llvm.memcpy.p0.p0.i64(ptr align 8 %22, ptr align 4 %6, i64 4, i1 false), !tbaa.struct !18
  %24 = load ptr, ptr %4, align 8, !tbaa !14
  store ptr %24, ptr %2, align 8
  store i32 1, ptr %5, align 4
  br label %25

25:                                               ; preds = %12, %10
  call void @llvm.lifetime.end.p0(i64 8, ptr %4) #7
  %26 = load ptr, ptr %2, align 8
  ret ptr %26
}

; Function Attrs: nounwind uwtable
define internal zeroext i1 @cfg_builder_current_block_is_terminated(ptr noundef %0) #0 {
  %2 = alloca i1, align 1
  %3 = alloca ptr, align 8
  %4 = alloca ptr, align 8
  %5 = alloca i32, align 4
  %6 = alloca %struct._PyJumpTargetLabel, align 4
  %7 = alloca %struct._PyJumpTargetLabel, align 4
  %8 = alloca %struct._PyJumpTargetLabel, align 4
  store ptr %0, ptr %3, align 8, !tbaa !4
  call void @llvm.lifetime.start.p0(i64 8, ptr %4) #7
  %9 = load ptr, ptr %3, align 8, !tbaa !4
  %10 = getelementptr inbounds nuw %struct._PyCfgBuilder, ptr %9, i32 0, i32 2
  %11 = load ptr, ptr %10, align 8, !tbaa !16
  %12 = call ptr @basicblock_last_instr(ptr noundef %11)
  store ptr %12, ptr %4, align 8, !tbaa !29
  %13 = load ptr, ptr %4, align 8, !tbaa !29
  %14 = icmp ne ptr %13, null
  br i1 %14, label %15, label %42

15:                                               ; preds = %1
  %16 = load ptr, ptr %4, align 8, !tbaa !29
  %17 = getelementptr inbounds nuw %struct._PyCfgInstruction, ptr %16, i32 0, i32 0
  %18 = load i32, ptr %17, align 8, !tbaa !30
  %19 = sext i32 %18 to i64
  %20 = getelementptr [266 x %struct.opcode_metadata], ptr @_PyOpcode_opcode_metadata, i64 0, i64 %19
  %21 = getelementptr inbounds nuw %struct.opcode_metadata, ptr %20, i32 0, i32 2
  %22 = load i16, ptr %21, align 2, !tbaa !45
  %23 = zext i16 %22 to i32
  %24 = and i32 %23, 8
  %25 = icmp ne i32 %24, 0
  br i1 %25, label %41, label %26

26:                                               ; preds = %15
  %27 = load ptr, ptr %4, align 8, !tbaa !29
  %28 = getelementptr inbounds nuw %struct._PyCfgInstruction, ptr %27, i32 0, i32 0
  %29 = load i32, ptr %28, align 8, !tbaa !30
  %30 = icmp eq i32 %29, 36
  br i1 %30, label %41, label %31

31:                                               ; preds = %26
  %32 = load ptr, ptr %4, align 8, !tbaa !29
  %33 = getelementptr inbounds nuw %struct._PyCfgInstruction, ptr %32, i32 0, i32 0
  %34 = load i32, ptr %33, align 8, !tbaa !30
  %35 = icmp eq i32 %34, 101
  br i1 %35, label %41, label %36

36:                                               ; preds = %31
  %37 = load ptr, ptr %4, align 8, !tbaa !29
  %38 = getelementptr inbounds nuw %struct._PyCfgInstruction, ptr %37, i32 0, i32 0
  %39 = load i32, ptr %38, align 8, !tbaa !30
  %40 = icmp eq i32 %39, 102
  br i1 %40, label %41, label %42

41:                                               ; preds = %36, %31, %26, %15
  store i1 true, ptr %2, align 1
  store i32 1, ptr %5, align 4
  br label %74

42:                                               ; preds = %36, %1
  %43 = load ptr, ptr %3, align 8, !tbaa !4
  %44 = getelementptr inbounds nuw %struct._PyCfgBuilder, ptr %43, i32 0, i32 3
  %45 = getelementptr inbounds nuw %struct._PyJumpTargetLabel, ptr %44, i32 0, i32 0
  %46 = load i32, ptr %45, align 8, !tbaa !128
  %47 = getelementptr inbounds nuw %struct._PyJumpTargetLabel, ptr %6, i32 0, i32 0
  store i32 -1, ptr %47, align 4, !tbaa !17
  %48 = icmp eq i32 %46, -1
  br i1 %48, label %73, label %49

49:                                               ; preds = %42
  %50 = load ptr, ptr %4, align 8, !tbaa !29
  %51 = icmp ne ptr %50, null
  br i1 %51, label %61, label %52

52:                                               ; preds = %49
  %53 = load ptr, ptr %3, align 8, !tbaa !4
  %54 = getelementptr inbounds nuw %struct._PyCfgBuilder, ptr %53, i32 0, i32 2
  %55 = load ptr, ptr %54, align 8, !tbaa !16
  %56 = getelementptr inbounds nuw %struct._PyCfgBasicblock, ptr %55, i32 0, i32 1
  %57 = getelementptr inbounds nuw %struct._PyJumpTargetLabel, ptr %56, i32 0, i32 0
  %58 = load i32, ptr %57, align 8, !tbaa !41
  %59 = getelementptr inbounds nuw %struct._PyJumpTargetLabel, ptr %7, i32 0, i32 0
  store i32 -1, ptr %59, align 4, !tbaa !17
  %60 = icmp eq i32 %58, -1
  br i1 %60, label %62, label %61

61:                                               ; preds = %52, %49
  store i1 true, ptr %2, align 1
  store i32 1, ptr %5, align 4
  br label %74

62:                                               ; preds = %52
  %63 = load ptr, ptr %3, align 8, !tbaa !4
  %64 = getelementptr inbounds nuw %struct._PyCfgBuilder, ptr %63, i32 0, i32 2
  %65 = load ptr, ptr %64, align 8, !tbaa !16
  %66 = getelementptr inbounds nuw %struct._PyCfgBasicblock, ptr %65, i32 0, i32 1
  %67 = load ptr, ptr %3, align 8, !tbaa !4
  %68 = getelementptr inbounds nuw %struct._PyCfgBuilder, ptr %67, i32 0, i32 3
  call void @llvm.memcpy.p0.p0.i64(ptr align 8 %66, ptr align 8 %68, i64 4, i1 false), !tbaa.struct !18
  %69 = load ptr, ptr %3, align 8, !tbaa !4
  %70 = getelementptr inbounds nuw %struct._PyCfgBuilder, ptr %69, i32 0, i32 3
  %71 = getelementptr inbounds nuw %struct._PyJumpTargetLabel, ptr %8, i32 0, i32 0
  store i32 -1, ptr %71, align 4, !tbaa !17
  call void @llvm.memcpy.p0.p0.i64(ptr align 8 %70, ptr align 4 %8, i64 4, i1 false), !tbaa.struct !18
  br label %72

72:                                               ; preds = %62
  br label %73

73:                                               ; preds = %72, %42
  store i1 false, ptr %2, align 1
  store i32 1, ptr %5, align 4
  br label %74

74:                                               ; preds = %73, %61, %41
  call void @llvm.lifetime.end.p0(i64 8, ptr %4) #7
  %75 = load i1, ptr %2, align 1
  ret i1 %75
}

; Function Attrs: nounwind uwtable
define internal i32 @cfg_builder_maybe_start_new_block(ptr noundef %0) #0 {
  %2 = alloca i32, align 4
  %3 = alloca ptr, align 8
  %4 = alloca ptr, align 8
  %5 = alloca i32, align 4
  %6 = alloca %struct._PyJumpTargetLabel, align 4
  store ptr %0, ptr %3, align 8, !tbaa !4
  %7 = load ptr, ptr %3, align 8, !tbaa !4
  %8 = call zeroext i1 @cfg_builder_current_block_is_terminated(ptr noundef %7)
  br i1 %8, label %9, label %29

9:                                                ; preds = %1
  call void @llvm.lifetime.start.p0(i64 8, ptr %4) #7
  %10 = load ptr, ptr %3, align 8, !tbaa !4
  %11 = call ptr @cfg_builder_new_block(ptr noundef %10)
  store ptr %11, ptr %4, align 8, !tbaa !14
  %12 = load ptr, ptr %4, align 8, !tbaa !14
  %13 = icmp eq ptr %12, null
  br i1 %13, label %14, label %15

14:                                               ; preds = %9
  store i32 -1, ptr %2, align 4
  store i32 1, ptr %5, align 4
  br label %26

15:                                               ; preds = %9
  %16 = load ptr, ptr %4, align 8, !tbaa !14
  %17 = getelementptr inbounds nuw %struct._PyCfgBasicblock, ptr %16, i32 0, i32 1
  %18 = load ptr, ptr %3, align 8, !tbaa !4
  %19 = getelementptr inbounds nuw %struct._PyCfgBuilder, ptr %18, i32 0, i32 3
  call void @llvm.memcpy.p0.p0.i64(ptr align 8 %17, ptr align 8 %19, i64 4, i1 false), !tbaa.struct !18
  %20 = load ptr, ptr %3, align 8, !tbaa !4
  %21 = getelementptr inbounds nuw %struct._PyCfgBuilder, ptr %20, i32 0, i32 3
  %22 = getelementptr inbounds nuw %struct._PyJumpTargetLabel, ptr %6, i32 0, i32 0
  store i32 -1, ptr %22, align 4, !tbaa !17
  call void @llvm.memcpy.p0.p0.i64(ptr align 8 %21, ptr align 4 %6, i64 4, i1 false), !tbaa.struct !18
  %23 = load ptr, ptr %3, align 8, !tbaa !4
  %24 = load ptr, ptr %4, align 8, !tbaa !14
  %25 = call ptr @cfg_builder_use_next_block(ptr noundef %23, ptr noundef %24)
  store i32 0, ptr %5, align 4
  br label %26

26:                                               ; preds = %15, %14
  call void @llvm.lifetime.end.p0(i64 8, ptr %4) #7
  %27 = load i32, ptr %5, align 4
  switch i32 %27, label %32 [
    i32 0, label %28
    i32 1, label %30
  ]

28:                                               ; preds = %26
  br label %29

29:                                               ; preds = %28, %1
  store i32 0, ptr %2, align 4
  br label %30

30:                                               ; preds = %29, %26
  %31 = load i32, ptr %2, align 4
  ret i32 %31

32:                                               ; preds = %26
  unreachable
}