; Function Attrs: nounwind uwtable
define internal fastcc range(i32 -1, 1) i32 @cfg_builder_maybe_start_new_block(ptr noundef captures(none) %0) unnamed_addr #0 {
  %2 = getelementptr inbounds nuw i8, ptr %0, i64 16
  %3 = load ptr, ptr %2, align 8, !tbaa !19
  %4 = getelementptr inbounds nuw i8, ptr %3, i64 40
  %5 = load i32, ptr %4, align 8, !tbaa !25
  %6 = icmp sgt i32 %5, 0
  br i1 %6, label %basicblock_last_instr.exit.i, label %basicblock_last_instr.exit.thread.i

basicblock_last_instr.exit.i:                     ; preds = %1
  %7 = getelementptr inbounds nuw i8, ptr %3, i64 24
  %8 = load ptr, ptr %7, align 8, !tbaa !20
  %9 = zext nneg i32 %5 to i64
  %10 = getelementptr %struct._PyCfgInstruction, ptr %8, i64 %9
  %11 = getelementptr i8, ptr %10, i64 -40
  %.not.i = icmp eq ptr %11, null
  br i1 %.not.i, label %basicblock_last_instr.exit.thread.i, label %12

12:                                               ; preds = %basicblock_last_instr.exit.i
  %13 = load i32, ptr %11, align 8, !tbaa !26
  %14 = sext i32 %13 to i64
  %15 = getelementptr [266 x %struct.opcode_metadata], ptr @_PyOpcode_opcode_metadata, i64 0, i64 %14, i32 2
  %16 = load i16, ptr %15, align 2, !tbaa !29
  %.fr27.i = freeze i16 %16
  %17 = and i16 %.fr27.i, 8
  %.not17.not.i = icmp eq i16 %17, 0
  br i1 %.not17.not.i, label %switch.early.test.i, label %cfg_builder_current_block_is_terminated.exit.thread

switch.early.test.i:                              ; preds = %12
  switch i32 %13, label %cfg_builder_current_block_is_terminated.exit [
    i32 102, label %cfg_builder_current_block_is_terminated.exit.thread
    i32 101, label %cfg_builder_current_block_is_terminated.exit.thread
    i32 36, label %cfg_builder_current_block_is_terminated.exit.thread
  ]

basicblock_last_instr.exit.thread.i:              ; preds = %basicblock_last_instr.exit.i, %1
  %18 = getelementptr inbounds nuw i8, ptr %0, i64 24
  %19 = load i32, ptr %18, align 8, !tbaa !32
  %.not28.i = icmp eq i32 %19, -1
  br i1 %.not28.i, label %cfg_builder_current_block_is_terminated.exit.thread12, label %20

20:                                               ; preds = %basicblock_last_instr.exit.thread.i
  %21 = getelementptr inbounds nuw i8, ptr %3, i64 8
  %22 = load i32, ptr %21, align 8, !tbaa !33
  %23 = icmp eq i32 %22, -1
  br i1 %23, label %24, label %cfg_builder_current_block_is_terminated.exit.thread

24:                                               ; preds = %20
  store i32 %19, ptr %21, align 8, !tbaa !17
  store i32 -1, ptr %18, align 8, !tbaa !17
  br label %cfg_builder_current_block_is_terminated.exit.thread12

cfg_builder_current_block_is_terminated.exit:     ; preds = %switch.early.test.i
  %25 = getelementptr inbounds nuw i8, ptr %0, i64 24
  %26 = load i32, ptr %25, align 8, !tbaa !32
  %.not = icmp eq i32 %26, -1
  br i1 %.not, label %cfg_builder_current_block_is_terminated.exit.thread12, label %cfg_builder_current_block_is_terminated.exit.thread

cfg_builder_current_block_is_terminated.exit.thread: ; preds = %12, %20, %switch.early.test.i, %switch.early.test.i, %switch.early.test.i, %cfg_builder_current_block_is_terminated.exit
  %27 = tail call ptr @PyMem_Calloc(i64 noundef 1, i64 noundef 72) #8
  %28 = icmp eq ptr %27, null
  br i1 %28, label %36, label %.thread

.thread:                                          ; preds = %cfg_builder_current_block_is_terminated.exit.thread
  %29 = getelementptr inbounds nuw i8, ptr %0, i64 8
  %30 = load ptr, ptr %29, align 8, !tbaa !4
  store ptr %30, ptr %27, align 8, !tbaa !12
  store ptr %27, ptr %29, align 8, !tbaa !4
  %31 = getelementptr inbounds nuw i8, ptr %27, i64 8
  store i32 -1, ptr %31, align 8, !tbaa !17
  %32 = getelementptr inbounds nuw i8, ptr %0, i64 24
  %33 = load i32, ptr %32, align 8, !tbaa !17
  store i32 %33, ptr %31, align 8, !tbaa !17
  store i32 -1, ptr %32, align 8, !tbaa !17
  %34 = load ptr, ptr %2, align 8, !tbaa !19
  %35 = getelementptr inbounds nuw i8, ptr %34, i64 32
  store ptr %27, ptr %35, align 8, !tbaa !34
  store ptr %27, ptr %2, align 8, !tbaa !19
  br label %cfg_builder_current_block_is_terminated.exit.thread12

36:                                               ; preds = %cfg_builder_current_block_is_terminated.exit.thread
  %37 = tail call ptr @PyErr_NoMemory() #8
  br label %cfg_builder_current_block_is_terminated.exit.thread12

cfg_builder_current_block_is_terminated.exit.thread12: ; preds = %basicblock_last_instr.exit.thread.i, %24, %cfg_builder_current_block_is_terminated.exit, %.thread, %36
  %.1 = phi i32 [ -1, %36 ], [ 0, %.thread ], [ 0, %cfg_builder_current_block_is_terminated.exit ], [ 0, %24 ], [ 0, %basicblock_last_instr.exit.thread.i ]
  ret i32 %.1
}